; Function Attrs: nounwind uwtable
define internal fastcc void @show_datestring(ptr noundef %0, ptr noundef %1) unnamed_addr #0 {
  %3 = load i32, ptr @filter, align 4, !tbaa !9
  %4 = and i32 %3, 5
  %.not = icmp eq i32 %4, 5
  br i1 %.not, label %5, label %22

5:                                                ; preds = %2
  %6 = tail call i64 @approxidate_careful(ptr noundef %1, ptr noundef null) #19
  %7 = tail call ptr (ptr, ...) @xstrfmt(ptr noundef nonnull @.str.119, ptr noundef %0, i64 noundef %6) #19
  %.b.i = load i1, ptr @output_sq, align 4
  br i1 %.b.i, label %.preheader, label %20

.preheader:                                       ; preds = %5, %.preheader.backedge
  %.sink.sink.i = phi i32 [ %.sink.sink.i.be, %.preheader.backedge ], [ 39, %5 ]
  %.0.i = phi ptr [ %10, %.preheader.backedge ], [ %7, %5 ]
  %8 = load ptr, ptr @stdout, align 8, !tbaa !25
  %9 = tail call i32 @putc(i32 noundef %.sink.sink.i, ptr noundef %8)
  %10 = getelementptr inbounds nuw i8, ptr %.0.i, i64 1
  %11 = load i8, ptr %.0.i, align 1, !tbaa !24
  switch i8 %11, label %.split.i [
    i8 0, label %15
    i8 39, label %.split7.i
  ]

.split.i:                                         ; preds = %.preheader
  %12 = sext i8 %11 to i32
  br label %.preheader.backedge

.split7.i:                                        ; preds = %.preheader
  %13 = load ptr, ptr @stdout, align 8, !tbaa !25
  %14 = tail call i64 @fwrite(ptr nonnull @.str.117, i64 3, i64 1, ptr %13)
  br label %.preheader.backedge

.preheader.backedge:                              ; preds = %.split7.i, %.split.i
  %.sink.sink.i.be = phi i32 [ %12, %.split.i ], [ 39, %.split7.i ]
  br label %.preheader, !llvm.loop !61

15:                                               ; preds = %.preheader
  %16 = load ptr, ptr @stdout, align 8, !tbaa !25
  %17 = tail call i32 @putc(i32 noundef 39, ptr noundef %16)
  %18 = load ptr, ptr @stdout, align 8, !tbaa !25
  %19 = tail call i32 @putc(i32 noundef 32, ptr noundef %18)
  br label %show.exit

20:                                               ; preds = %5
  %21 = tail call i32 @puts(ptr noundef nonnull readonly dereferenceable(1) %7)
  br label %show.exit

show.exit:                                        ; preds = %15, %20
  tail call void @free(ptr noundef %7) #19
  br label %22

22:                                               ; preds = %2, %show.exit
  ret void
}